target datalayout = "e-m:e-p270:32:32-p271:32:32-p272:64:64-i64:64-i128:128-f80:128-n8:16:32:64-S128"
target triple = "x86_64-unknown-linux-gnu"

; Function Attrs: mustprogress nounwind uwtable
define dso_local void @_ZN4node7tracing17replace_substringEPNSt7__cxx1112basic_stringIcSt11char_traitsIcESaIcEEERKS6_S9_(ptr noundef %target, ptr noundef nonnull align 8 dereferenceable(32) %search, ptr noundef nonnull align 8 dereferenceable(32) %insert) #0 {
entry:
  %target.addr = alloca ptr, align 8
  %search.addr = alloca ptr, align 8
  %insert.addr = alloca ptr, align 8
  %pos = alloca i64, align 8
  store ptr %target, ptr %target.addr, align 8
  store ptr %search, ptr %search.addr, align 8
  store ptr %insert, ptr %insert.addr, align 8
  %0 = load ptr, ptr %target.addr, align 8
  %1 = load ptr, ptr %search.addr, align 8
  %call = call noundef i64 @_ZNKSt7__cxx1112basic_stringIcSt11char_traitsIcESaIcEE4findERKS4_m(ptr noundef nonnull align 8 dereferenceable(32) %0, ptr noundef nonnull align 8 dereferenceable(32) %1, i64 noundef 0) #10
  store i64 %call, ptr %pos, align 8
  br label %for.cond

for.cond:                                         ; preds = %for.inc, %entry
  %2 = load i64, ptr %pos, align 8
  %cmp = icmp ne i64 %2, -1
  br i1 %cmp, label %for.body, label %for.end

for.body:                                         ; preds = %for.cond
  %3 = load ptr, ptr %target.addr, align 8
  %4 = load i64, ptr %pos, align 8
  %5 = load ptr, ptr %search.addr, align 8
  %call1 = call noundef i64 @_ZNKSt7__cxx1112basic_stringIcSt11char_traitsIcESaIcEE4sizeEv(ptr noundef nonnull align 8 dereferenceable(32) %5) #10
  %6 = load ptr, ptr %insert.addr, align 8
  %call2 = call noundef nonnull align 8 dereferenceable(32) ptr @_ZNSt7__cxx1112basic_stringIcSt11char_traitsIcESaIcEE7replaceEmmRKS4_(ptr noundef nonnull align 8 dereferenceable(32) %3, i64 noundef %4, i64 noundef %call1, ptr noundef nonnull align 8 dereferenceable(32) %6)
  %7 = load ptr, ptr %insert.addr, align 8
  %call3 = call noundef i64 @_ZNKSt7__cxx1112basic_stringIcSt11char_traitsIcESaIcEE4sizeEv(ptr noundef nonnull align 8 dereferenceable(32) %7) #10
  %8 = load i64, ptr %pos, align 8
  %add = add i64 %8, %call3
  store i64 %add, ptr %pos, align 8
  br label %for.inc

for.inc:                                          ; preds = %for.body
  %9 = load ptr, ptr %target.addr, align 8
  %10 = load ptr, ptr %search.addr, align 8
  %11 = load i64, ptr %pos, align 8
  %call4 = call noundef i64 @_ZNKSt7__cxx1112basic_stringIcSt11char_traitsIcESaIcEE4findERKS4_m(ptr noundef nonnull align 8 dereferenceable(32) %9, ptr noundef nonnull align 8 dereferenceable(32) %10, i64 noundef %11) #10
  store i64 %call4, ptr %pos, align 8
  br label %for.cond, !llvm.loop !7

for.end:                                          ; preds = %for.cond
  ret void
}