; Function Attrs: mustprogress nounwind uwtable
define dso_local void @_ZN4node7tracing17replace_substringEPNSt7__cxx1112basic_stringIcSt11char_traitsIcESaIcEEERKS6_S9_(ptr noundef nonnull %target, ptr noundef nonnull align 8 dereferenceable(32) %search, ptr noundef nonnull align 8 dereferenceable(32) %insert) local_unnamed_addr #0 {
entry:
  %call = tail call noundef i64 @_ZNKSt7__cxx1112basic_stringIcSt11char_traitsIcESaIcEE4findERKS4_m(ptr noundef nonnull align 8 dereferenceable(32) %target, ptr noundef nonnull align 8 dereferenceable(32) %search, i64 noundef 0) #12
  %cmp.not9 = icmp eq i64 %call, -1
  br i1 %cmp.not9, label %for.end, label %for.body

for.body:                                         ; preds = %entry, %for.body
  %pos.010 = phi i64 [ %call4, %for.body ], [ %call, %entry ]
  %call1 = tail call noundef i64 @_ZNKSt7__cxx1112basic_stringIcSt11char_traitsIcESaIcEE4sizeEv(ptr noundef nonnull align 8 dereferenceable(32) %search) #12
  %call2 = tail call noundef nonnull align 8 dereferenceable(32) ptr @_ZNSt7__cxx1112basic_stringIcSt11char_traitsIcESaIcEE7replaceEmmRKS4_(ptr noundef nonnull align 8 dereferenceable(32) %target, i64 noundef %pos.010, i64 noundef %call1, ptr noundef nonnull align 8 dereferenceable(32) %insert) #12
  %call3 = tail call noundef i64 @_ZNKSt7__cxx1112basic_stringIcSt11char_traitsIcESaIcEE4sizeEv(ptr noundef nonnull align 8 dereferenceable(32) %insert) #12
  %add = add i64 %call3, %pos.010
  %call4 = tail call noundef i64 @_ZNKSt7__cxx1112basic_stringIcSt11char_traitsIcESaIcEE4findERKS4_m(ptr noundef nonnull align 8 dereferenceable(32) %target, ptr noundef nonnull align 8 dereferenceable(32) %search, i64 noundef %add) #12
  %cmp.not = icmp eq i64 %call4, -1
  br i1 %cmp.not, label %for.end, label %for.body, !llvm.loop !7

for.end:                                          ; preds = %for.body, %entry
  ret void
}